target datalayout = "e-m:e-p270:32:32-p271:32:32-p272:64:64-i64:64-i128:128-f80:128-n8:16:32:64-S128"
target triple = "x86_64-pc-linux-gnu"

%struct.termios = type { i32, i32, i32, i32, i8, [32 x i8], i32, i32 }
%struct.sigaction = type { %union.anon, %struct.__sigset_t, i32, ptr }
%union.anon = type { ptr }
%struct.__sigset_t = type { [16 x i64] }

@is_a_tty = internal global i32 0, align 4
@tty_in = internal global ptr null, align 8
@tty_out = internal global ptr null, align 8
@tty_orig = internal global %struct.termios zeroinitializer, align 4
@read_string_inner.ps = internal global i32 0, align 4
@intr_signal = internal global i32 0, align 4
@.str.8 = private unnamed_addr constant [2 x i8] c"\0A\00", align 1
@savsig = internal global [32 x %struct.sigaction] zeroinitializer, align 16
@tty_new = internal global %struct.termios zeroinitializer, align 4

; Function Attrs: nounwind uwtable
define internal void @popsig() #0 {
  %1 = alloca i32, align 4
  call void @llvm.lifetime.start.p0(i64 4, ptr %1) #8
  store i32 1, ptr %1, align 4, !tbaa !17
  br label %2

2:                                                ; preds = %19, %0
  %3 = load i32, ptr %1, align 4, !tbaa !17
  %4 = icmp slt i32 %3, 32
  br i1 %4, label %5, label %22

5:                                                ; preds = %2
  %6 = load i32, ptr %1, align 4, !tbaa !17
  %7 = icmp eq i32 %6, 10
  br i1 %7, label %8, label %9

8:                                                ; preds = %5
  br label %19

9:                                                ; preds = %5
  %10 = load i32, ptr %1, align 4, !tbaa !17
  %11 = icmp eq i32 %10, 12
  br i1 %11, label %12, label %13

12:                                               ; preds = %9
  br label %19

13:                                               ; preds = %9
  %14 = load i32, ptr %1, align 4, !tbaa !17
  %15 = load i32, ptr %1, align 4, !tbaa !17
  %16 = sext i32 %15 to i64
  %17 = getelementptr inbounds [32 x %struct.sigaction], ptr @savsig, i64 0, i64 %16
  %18 = call i32 @sigaction(i32 noundef %14, ptr noundef %17, ptr noundef null) #8
  br label %19

19:                                               ; preds = %13, %12, %8
  %20 = load i32, ptr %1, align 4, !tbaa !17
  %21 = add nsw i32 %20, 1
  store i32 %21, ptr %1, align 4, !tbaa !17
  br label %2, !llvm.loop !30

22:                                               ; preds = %2
  call void @llvm.lifetime.end.p0(i64 4, ptr %1) #8
  ret void
}

; Function Attrs: nounwind uwtable
define internal i32 @echo_console(ptr noundef %0) #0 {
  %2 = alloca i32, align 4
  %3 = alloca ptr, align 8
  store ptr %0, ptr %3, align 8, !tbaa !8
  call void @llvm.memcpy.p0.p0.i64(ptr align 4 @tty_new, ptr align 4 @tty_orig, i64 60, i1 false)
  %4 = load i32, ptr @is_a_tty, align 4, !tbaa !17
  %5 = icmp ne i32 %4, 0
  br i1 %5, label %6, label %12

6:                                                ; preds = %1
  %7 = load ptr, ptr @tty_in, align 8, !tbaa !18
  %8 = call i32 @fileno(ptr noundef %7) #8
  %9 = call i32 @tcsetattr(i32 noundef %8, i32 noundef 0, ptr noundef @tty_new) #8
  %10 = icmp eq i32 %9, -1
  br i1 %10, label %11, label %12

11:                                               ; preds = %6
  store i32 0, ptr %2, align 4
  br label %13

12:                                               ; preds = %6, %1
  store i32 1, ptr %2, align 4
  br label %13

13:                                               ; preds = %12, %11
  %14 = load i32, ptr %2, align 4
  ret i32 %14
}

; Function Attrs: nounwind uwtable
define internal i32 @read_till_nl(ptr noundef %0) #0 {
  %2 = alloca i32, align 4
  %3 = alloca ptr, align 8
  %4 = alloca [5 x i8], align 1
  %5 = alloca i32, align 4
  store ptr %0, ptr %3, align 8, !tbaa !18
  call void @llvm.lifetime.start.p0(i64 5, ptr %4) #8
  br label %6

6:                                                ; preds = %13, %1
  %7 = getelementptr inbounds [5 x i8], ptr %4, i64 0, i64 0
  %8 = load ptr, ptr %3, align 8, !tbaa !18
  %9 = call ptr @fgets(ptr noundef %7, i32 noundef 4, ptr noundef %8)
  %10 = icmp ne ptr %9, null
  br i1 %10, label %12, label %11

11:                                               ; preds = %6
  store i32 0, ptr %2, align 4
  store i32 1, ptr %5, align 4
  br label %18

12:                                               ; preds = %6
  br label %13

13:                                               ; preds = %12
  %14 = getelementptr inbounds [5 x i8], ptr %4, i64 0, i64 0
  %15 = call ptr @strchr(ptr noundef %14, i32 noundef 10) #10
  %16 = icmp eq ptr %15, null
  br i1 %16, label %6, label %17, !llvm.loop !29

17:                                               ; preds = %13
  store i32 1, ptr %2, align 4
  store i32 1, ptr %5, align 4
  br label %18

18:                                               ; preds = %17, %11
  call void @llvm.lifetime.end.p0(i64 5, ptr %4) #8
  %19 = load i32, ptr %2, align 4
  ret i32 %19
}

; Function Attrs: nounwind uwtable
define internal i32 @noecho_console(ptr noundef %0) #0 {
  %2 = alloca i32, align 4
  %3 = alloca ptr, align 8
  store ptr %0, ptr %3, align 8, !tbaa !8
  call void @llvm.memcpy.p0.p0.i64(ptr align 4 @tty_new, ptr align 4 @tty_orig, i64 60, i1 false)
  %4 = load i32, ptr getelementptr inbounds nuw (%struct.termios, ptr @tty_new, i32 0, i32 3), align 4, !tbaa !27
  %5 = and i32 %4, -9
  store i32 %5, ptr getelementptr inbounds nuw (%struct.termios, ptr @tty_new, i32 0, i32 3), align 4, !tbaa !27
  %6 = load i32, ptr @is_a_tty, align 4, !tbaa !17
  %7 = icmp ne i32 %6, 0
  br i1 %7, label %8, label %14

8:                                                ; preds = %1
  %9 = load ptr, ptr @tty_in, align 8, !tbaa !18
  %10 = call i32 @fileno(ptr noundef %9) #8
  %11 = call i32 @tcsetattr(i32 noundef %10, i32 noundef 0, ptr noundef @tty_new) #8
  %12 = icmp eq i32 %11, -1
  br i1 %12, label %13, label %14

13:                                               ; preds = %8
  store i32 0, ptr %2, align 4
  br label %15

14:                                               ; preds = %8, %1
  store i32 1, ptr %2, align 4
  br label %15

15:                                               ; preds = %14, %13
  %16 = load i32, ptr %2, align 4
  ret i32 %16
}

; Function Attrs: nounwind uwtable
define internal void @pushsig() #0 {
  %1 = alloca i32, align 4
  %2 = alloca %struct.sigaction, align 8
  call void @llvm.lifetime.start.p0(i64 4, ptr %1) #8
  call void @llvm.lifetime.start.p0(i64 152, ptr %2) #8
  call void @llvm.memset.p0.i64(ptr align 8 %2, i8 0, i64 152, i1 false)
  %3 = getelementptr inbounds nuw %struct.sigaction, ptr %2, i32 0, i32 0
  store ptr @recsig, ptr %3, align 8, !tbaa !24
  store i32 1, ptr %1, align 4, !tbaa !17
  br label %4

4:                                                ; preds = %25, %0
  %5 = load i32, ptr %1, align 4, !tbaa !17
  %6 = icmp slt i32 %5, 32
  br i1 %6, label %7, label %28

7:                                                ; preds = %4
  %8 = load i32, ptr %1, align 4, !tbaa !17
  %9 = icmp eq i32 %8, 10
  br i1 %9, label %10, label %11

10:                                               ; preds = %7
  br label %25

11:                                               ; preds = %7
  %12 = load i32, ptr %1, align 4, !tbaa !17
  %13 = icmp eq i32 %12, 12
  br i1 %13, label %14, label %15

14:                                               ; preds = %11
  br label %25

15:                                               ; preds = %11
  %16 = load i32, ptr %1, align 4, !tbaa !17
  %17 = icmp eq i32 %16, 9
  br i1 %17, label %18, label %19

18:                                               ; preds = %15
  br label %25

19:                                               ; preds = %15
  %20 = load i32, ptr %1, align 4, !tbaa !17
  %21 = load i32, ptr %1, align 4, !tbaa !17
  %22 = sext i32 %21 to i64
  %23 = getelementptr inbounds [32 x %struct.sigaction], ptr @savsig, i64 0, i64 %22
  %24 = call i32 @sigaction(i32 noundef %20, ptr noundef %2, ptr noundef %23) #8
  br label %25

25:                                               ; preds = %19, %18, %14, %10
  %26 = load i32, ptr %1, align 4, !tbaa !17
  %27 = add nsw i32 %26, 1
  store i32 %27, ptr %1, align 4, !tbaa !17
  br label %4, !llvm.loop !25

28:                                               ; preds = %4
  %29 = call ptr @signal(i32 noundef 28, ptr noundef null) #8
  call void @llvm.lifetime.end.p0(i64 152, ptr %2) #8
  call void @llvm.lifetime.end.p0(i64 4, ptr %1) #8
  ret void
}

; Function Attrs: nounwind uwtable
define internal i32 @read_string_inner(ptr noundef %0, ptr noundef %1, i32 noundef %2, i32 noundef %3) #0 {
  %5 = alloca ptr, align 8
  %6 = alloca ptr, align 8
  %7 = alloca i32, align 4
  %8 = alloca i32, align 4
  %9 = alloca i32, align 4
  %10 = alloca [8192 x i8], align 16
  %11 = alloca i32, align 4
  %12 = alloca ptr, align 8
  %13 = alloca i32, align 4
  store ptr %0, ptr %5, align 8, !tbaa !8
  store ptr %1, ptr %6, align 8, !tbaa !20
  store i32 %2, ptr %7, align 4, !tbaa !17
  store i32 %3, ptr %8, align 4, !tbaa !17
  call void @llvm.lifetime.start.p0(i64 4, ptr %9) #8
  call void @llvm.lifetime.start.p0(i64 8192, ptr %10) #8
  call void @llvm.lifetime.start.p0(i64 4, ptr %11) #8
  store i32 8191, ptr %11, align 4, !tbaa !17
  call void @llvm.lifetime.start.p0(i64 8, ptr %12) #8
  store ptr null, ptr %12, align 8, !tbaa !22
  call void @llvm.lifetime.start.p0(i64 4, ptr %13) #8
  %14 = load i32, ptr %7, align 4, !tbaa !17
  %15 = icmp ne i32 %14, 0
  %16 = xor i1 %15, true
  %17 = zext i1 %16 to i32
  store i32 %17, ptr %13, align 4, !tbaa !17
  store volatile i32 0, ptr @intr_signal, align 4, !tbaa !17
  store i32 0, ptr %9, align 4, !tbaa !17
  store i32 0, ptr @read_string_inner.ps, align 4, !tbaa !17
  call void @pushsig()
  store i32 1, ptr @read_string_inner.ps, align 4, !tbaa !17
  %18 = load i32, ptr %7, align 4, !tbaa !17
  %19 = icmp ne i32 %18, 0
  br i1 %19, label %25, label %20

20:                                               ; preds = %4
  %21 = load ptr, ptr %5, align 8, !tbaa !8
  %22 = call i32 @noecho_console(ptr noundef %21)
  %23 = icmp ne i32 %22, 0
  br i1 %23, label %25, label %24

24:                                               ; preds = %20
  br label %68

25:                                               ; preds = %20, %4
  store i32 2, ptr @read_string_inner.ps, align 4, !tbaa !17
  %26 = getelementptr inbounds [8192 x i8], ptr %10, i64 0, i64 0
  store i8 0, ptr %26, align 16, !tbaa !24
  %27 = getelementptr inbounds [8192 x i8], ptr %10, i64 0, i64 0
  %28 = load i32, ptr %11, align 4, !tbaa !17
  %29 = load ptr, ptr @tty_in, align 8, !tbaa !18
  %30 = call ptr @fgets(ptr noundef %27, i32 noundef %28, ptr noundef %29)
  store ptr %30, ptr %12, align 8, !tbaa !22
  %31 = load ptr, ptr %12, align 8, !tbaa !22
  %32 = icmp eq ptr %31, null
  br i1 %32, label %33, label %34

33:                                               ; preds = %25
  br label %68

34:                                               ; preds = %25
  %35 = load ptr, ptr @tty_in, align 8, !tbaa !18
  %36 = call i32 @feof(ptr noundef %35) #8
  %37 = icmp ne i32 %36, 0
  br i1 %37, label %38, label %39

38:                                               ; preds = %34
  br label %68

39:                                               ; preds = %34
  %40 = load ptr, ptr @tty_in, align 8, !tbaa !18
  %41 = call i32 @ferror(ptr noundef %40) #8
  %42 = icmp ne i32 %41, 0
  br i1 %42, label %43, label %44

43:                                               ; preds = %39
  br label %68

44:                                               ; preds = %39
  %45 = getelementptr inbounds [8192 x i8], ptr %10, i64 0, i64 0
  %46 = call ptr @strchr(ptr noundef %45, i32 noundef 10) #10
  store ptr %46, ptr %12, align 8, !tbaa !22
  %47 = icmp ne ptr %46, null
  br i1 %47, label %48, label %54

48:                                               ; preds = %44
  %49 = load i32, ptr %8, align 4, !tbaa !17
  %50 = icmp ne i32 %49, 0
  br i1 %50, label %51, label %53

51:                                               ; preds = %48
  %52 = load ptr, ptr %12, align 8, !tbaa !22
  store i8 0, ptr %52, align 1, !tbaa !24
  br label %53

53:                                               ; preds = %51, %48
  br label %60

54:                                               ; preds = %44
  %55 = load ptr, ptr @tty_in, align 8, !tbaa !18
  %56 = call i32 @read_till_nl(ptr noundef %55)
  %57 = icmp ne i32 %56, 0
  br i1 %57, label %59, label %58

58:                                               ; preds = %54
  br label %68

59:                                               ; preds = %54
  br label %60

60:                                               ; preds = %59, %53
  %61 = load ptr, ptr %5, align 8, !tbaa !8
  %62 = load ptr, ptr %6, align 8, !tbaa !20
  %63 = getelementptr inbounds [8192 x i8], ptr %10, i64 0, i64 0
  %64 = call i32 @UI_set_result(ptr noundef %61, ptr noundef %62, ptr noundef %63)
  %65 = icmp sge i32 %64, 0
  br i1 %65, label %66, label %67

66:                                               ; preds = %60
  store i32 1, ptr %9, align 4, !tbaa !17
  br label %67

67:                                               ; preds = %66, %60
  br label %68

68:                                               ; preds = %67, %58, %43, %38, %33, %24
  %69 = load volatile i32, ptr @intr_signal, align 4, !tbaa !17
  %70 = icmp eq i32 %69, 2
  br i1 %70, label %71, label %72

71:                                               ; preds = %68
  store i32 -1, ptr %9, align 4, !tbaa !17
  br label %72

72:                                               ; preds = %71, %68
  %73 = load i32, ptr %13, align 4, !tbaa !17
  %74 = icmp ne i32 %73, 0
  br i1 %74, label %75, label %78

75:                                               ; preds = %72
  %76 = load ptr, ptr @tty_out, align 8, !tbaa !18
  %77 = call i32 (ptr, ptr, ...) @fprintf(ptr noundef %76, ptr noundef @.str.8) #8
  br label %78

78:                                               ; preds = %75, %72
  %79 = load i32, ptr @read_string_inner.ps, align 4, !tbaa !17
  %80 = icmp sge i32 %79, 2
  br i1 %80, label %81, label %89

81:                                               ; preds = %78
  %82 = load i32, ptr %7, align 4, !tbaa !17
  %83 = icmp ne i32 %82, 0
  br i1 %83, label %89, label %84

84:                                               ; preds = %81
  %85 = load ptr, ptr %5, align 8, !tbaa !8
  %86 = call i32 @echo_console(ptr noundef %85)
  %87 = icmp ne i32 %86, 0
  br i1 %87, label %89, label %88

88:                                               ; preds = %84
  store i32 0, ptr %9, align 4, !tbaa !17
  br label %89

89:                                               ; preds = %88, %84, %81, %78
  %90 = load i32, ptr @read_string_inner.ps, align 4, !tbaa !17
  %91 = icmp sge i32 %90, 1
  br i1 %91, label %92, label %93

92:                                               ; preds = %89
  call void @popsig()
  br label %93

93:                                               ; preds = %92, %89
  %94 = getelementptr inbounds [8192 x i8], ptr %10, i64 0, i64 0
  call void @OPENSSL_cleanse(ptr noundef %94, i64 noundef 8192)
  %95 = load i32, ptr %9, align 4, !tbaa !17
  call void @llvm.lifetime.end.p0(i64 4, ptr %13) #8
  call void @llvm.lifetime.end.p0(i64 8, ptr %12) #8
  call void @llvm.lifetime.end.p0(i64 4, ptr %11) #8
  call void @llvm.lifetime.end.p0(i64 8192, ptr %10) #8
  call void @llvm.lifetime.end.p0(i64 4, ptr %9) #8
  ret i32 %95
}