; Function Attrs: nounwind uwtable
define internal fastcc range(i32 -1, 2) i32 @read_string_inner(ptr noundef %0, ptr noundef %1, i32 noundef range(i32 0, 2) %2, i32 noundef range(i32 0, 2) %3) unnamed_addr #3 {
  %5 = alloca [5 x i8], align 1
  %6 = alloca %struct.sigaction, align 8
  %7 = alloca [8192 x i8], align 16
  call void @llvm.lifetime.start.p0(i64 8192, ptr nonnull %7) #15
  store volatile i32 0, ptr @intr_signal, align 4, !tbaa !17
  store i32 0, ptr @read_string_inner.ps, align 4, !tbaa !17
  call void @llvm.lifetime.start.p0(i64 152, ptr nonnull %6) #15
  %8 = getelementptr inbounds nuw i8, ptr %6, i64 8
  call void @llvm.memset.p0.i64(ptr noundef nonnull align 8 dereferenceable(152) %8, i8 0, i64 144, i1 false)
  store ptr @recsig, ptr %6, align 8, !tbaa !18
  br label %9

9:                                                ; preds = %14, %4
  %indvars.iv.i = phi i64 [ 1, %4 ], [ %indvars.iv.next.i, %14 ]
  %10 = trunc nuw nsw i64 %indvars.iv.i to i32
  switch i32 %10, label %11 [
    i32 12, label %14
    i32 10, label %14
    i32 9, label %14
  ]

11:                                               ; preds = %9
  %12 = getelementptr inbounds nuw [32 x %struct.sigaction], ptr @savsig, i64 0, i64 %indvars.iv.i
  %13 = call i32 @sigaction(i32 noundef %10, ptr noundef nonnull %6, ptr noundef nonnull %12) #15
  br label %14

14:                                               ; preds = %11, %9, %9, %9
  %indvars.iv.next.i = add nuw nsw i64 %indvars.iv.i, 1
  %exitcond.not.i = icmp eq i64 %indvars.iv.next.i, 32
  br i1 %exitcond.not.i, label %pushsig.exit, label %9, !llvm.loop !19

pushsig.exit:                                     ; preds = %14
  %15 = icmp ne i32 %2, 0
  %16 = call ptr @signal(i32 noundef 28, ptr noundef null) #15
  call void @llvm.lifetime.end.p0(i64 152, ptr nonnull %6) #15
  store i32 1, ptr @read_string_inner.ps, align 4, !tbaa !17
  br i1 %15, label %noecho_console.exit, label %17

17:                                               ; preds = %pushsig.exit
  call void @llvm.memcpy.p0.p0.i64(ptr noundef nonnull align 4 dereferenceable(60) @tty_new, ptr noundef nonnull align 4 dereferenceable(60) @tty_orig, i64 60, i1 false)
  %18 = load i32, ptr getelementptr inbounds nuw (i8, ptr @tty_new, i64 12), align 4, !tbaa !21
  %19 = and i32 %18, -9
  store i32 %19, ptr getelementptr inbounds nuw (i8, ptr @tty_new, i64 12), align 4, !tbaa !21
  %.b.i = load i1, ptr @is_a_tty, align 4
  br i1 %.b.i, label %20, label %noecho_console.exit

20:                                               ; preds = %17
  %21 = load ptr, ptr @tty_in, align 8, !tbaa !15
  %22 = call i32 @fileno(ptr noundef %21) #15
  %23 = call i32 @tcsetattr(i32 noundef %22, i32 noundef 0, ptr noundef nonnull @tty_new) #15
  %24 = icmp eq i32 %23, -1
  br i1 %24, label %.thread, label %noecho_console.exit

.thread:                                          ; preds = %20
  %25 = load volatile i32, ptr @intr_signal, align 4, !tbaa !17
  %26 = icmp eq i32 %25, 2
  %spec.select2033 = sext i1 %26 to i32
  br label %52

noecho_console.exit:                              ; preds = %20, %17, %pushsig.exit
  store i32 2, ptr @read_string_inner.ps, align 4, !tbaa !17
  store i8 0, ptr %7, align 16, !tbaa !18
  %27 = load ptr, ptr @tty_in, align 8, !tbaa !15
  %28 = call ptr @fgets(ptr noundef nonnull %7, i32 noundef 8191, ptr noundef %27)
  %29 = icmp eq ptr %28, null
  br i1 %29, label %49, label %30

30:                                               ; preds = %noecho_console.exit
  %31 = load ptr, ptr @tty_in, align 8, !tbaa !15
  %32 = call i32 @feof(ptr noundef %31) #15
  %.not14 = icmp eq i32 %32, 0
  br i1 %.not14, label %33, label %49

33:                                               ; preds = %30
  %34 = load ptr, ptr @tty_in, align 8, !tbaa !15
  %35 = call i32 @ferror(ptr noundef %34) #15
  %.not15 = icmp eq i32 %35, 0
  br i1 %.not15, label %36, label %49

36:                                               ; preds = %33
  %37 = call ptr @strchr(ptr noundef nonnull dereferenceable(1) %7, i32 noundef 10) #17
  %.not16 = icmp eq ptr %37, null
  br i1 %.not16, label %40, label %38

38:                                               ; preds = %36
  %.not18 = icmp eq i32 %3, 0
  br i1 %.not18, label %46, label %39

39:                                               ; preds = %38
  store i8 0, ptr %37, align 1, !tbaa !18
  br label %46

40:                                               ; preds = %36
  call void @llvm.lifetime.start.p0(i64 5, ptr nonnull %5) #15
  br label %41

41:                                               ; preds = %43, %40
  %42 = call ptr @fgets(ptr noundef nonnull %5, i32 noundef 4, ptr noundef %34)
  %.not.i = icmp eq ptr %42, null
  br i1 %.not.i, label %read_till_nl.exit.thread, label %43

read_till_nl.exit.thread:                         ; preds = %41
  call void @llvm.lifetime.end.p0(i64 5, ptr nonnull %5) #15
  br label %49

43:                                               ; preds = %41
  %44 = call ptr @strchr(ptr noundef nonnull dereferenceable(1) %5, i32 noundef 10) #17
  %45 = icmp eq ptr %44, null
  br i1 %45, label %41, label %read_till_nl.exit, !llvm.loop !23

read_till_nl.exit:                                ; preds = %43
  call void @llvm.lifetime.end.p0(i64 5, ptr nonnull %5) #15
  br label %46

46:                                               ; preds = %read_till_nl.exit, %38, %39
  %47 = call i32 @UI_set_result(ptr noundef %0, ptr noundef %1, ptr noundef nonnull %7) #15
  %48 = icmp sgt i32 %47, -1
  %spec.select = zext i1 %48 to i32
  br label %49

49:                                               ; preds = %read_till_nl.exit.thread, %46, %33, %30, %noecho_console.exit
  %.0 = phi i32 [ 0, %noecho_console.exit ], [ 0, %30 ], [ 0, %33 ], [ %spec.select, %46 ], [ 0, %read_till_nl.exit.thread ]
  %50 = load volatile i32, ptr @intr_signal, align 4, !tbaa !17
  %51 = icmp eq i32 %50, 2
  %spec.select20 = select i1 %51, i32 -1, i32 %.0
  br i1 %15, label %echo_console.exitthread-pre-split, label %52

52:                                               ; preds = %49, %.thread
  %spec.select2034 = phi i32 [ %spec.select2033, %.thread ], [ %spec.select20, %49 ]
  %53 = load ptr, ptr @tty_out, align 8, !tbaa !15
  %fputc = call i32 @fputc(i32 10, ptr %53)
  %54 = load i32, ptr @read_string_inner.ps, align 4, !tbaa !17
  %55 = icmp slt i32 %54, 2
  %or.cond = or i1 %15, %55
  br i1 %or.cond, label %echo_console.exit, label %56

56:                                               ; preds = %52
  call void @llvm.memcpy.p0.p0.i64(ptr noundef nonnull align 4 dereferenceable(60) @tty_new, ptr noundef nonnull align 4 dereferenceable(60) @tty_orig, i64 60, i1 false)
  %.b.i23 = load i1, ptr @is_a_tty, align 4
  br i1 %.b.i23, label %57, label %echo_console.exitthread-pre-split

57:                                               ; preds = %56
  %58 = load ptr, ptr @tty_in, align 8, !tbaa !15
  %59 = call i32 @fileno(ptr noundef %58) #15
  %60 = call i32 @tcsetattr(i32 noundef %59, i32 noundef 0, ptr noundef nonnull @tty_new) #15
  %61 = icmp eq i32 %60, -1
  %spec.select41 = select i1 %61, i32 0, i32 %spec.select2034
  br label %echo_console.exitthread-pre-split

echo_console.exitthread-pre-split:                ; preds = %57, %49, %56
  %.2.ph = phi i32 [ %spec.select2034, %56 ], [ %spec.select20, %49 ], [ %spec.select41, %57 ]
  %.pr = load i32, ptr @read_string_inner.ps, align 4, !tbaa !17
  br label %echo_console.exit

echo_console.exit:                                ; preds = %echo_console.exitthread-pre-split, %52
  %62 = phi i32 [ %.pr, %echo_console.exitthread-pre-split ], [ %54, %52 ]
  %.2 = phi i32 [ %.2.ph, %echo_console.exitthread-pre-split ], [ %spec.select2034, %52 ]
  %63 = icmp sgt i32 %62, 0
  br i1 %63, label %.preheader, label %popsig.exit

.preheader:                                       ; preds = %echo_console.exit, %68
  %indvars.iv.i25 = phi i64 [ %indvars.iv.next.i26, %68 ], [ 1, %echo_console.exit ]
  %64 = trunc nuw nsw i64 %indvars.iv.i25 to i32
  switch i32 %64, label %65 [
    i32 12, label %68
    i32 10, label %68
  ]

65:                                               ; preds = %.preheader
  %66 = getelementptr inbounds nuw [32 x %struct.sigaction], ptr @savsig, i64 0, i64 %indvars.iv.i25
  %67 = call i32 @sigaction(i32 noundef %64, ptr noundef nonnull %66, ptr noundef null) #15
  br label %68

68:                                               ; preds = %65, %.preheader, %.preheader
  %indvars.iv.next.i26 = add nuw nsw i64 %indvars.iv.i25, 1
  %exitcond.not.i27 = icmp eq i64 %indvars.iv.next.i26, 32
  br i1 %exitcond.not.i27, label %popsig.exit, label %.preheader, !llvm.loop !24

popsig.exit:                                      ; preds = %68, %echo_console.exit
  call void @OPENSSL_cleanse(ptr noundef nonnull %7, i64 noundef 8192) #15
  call void @llvm.lifetime.end.p0(i64 8192, ptr nonnull %7) #15
  ret i32 %.2
}